target datalayout = "e-m:e-p270:32:32-p271:32:32-p272:64:64-i64:64-i128:128-f80:128-n8:16:32:64-S128"
target triple = "x86_64-pc-linux-gnu"

%struct.expert_field = type { i32, i32 }

@hf_PCEPF_SUBOBJ_SRLG = internal global i32 0, align 4
@hf_PCEPF_SUBOBJ_XRO = internal global i32 0, align 4
@hf_pcep_subobj_srlg_length = internal global i32 0, align 4
@hf_pcep_subobj_srlg_id = internal global i32 0, align 4
@hf_pcep_subobj_srlg_reserved = internal global i32 0, align 4
@hf_pcep_subobj_srlg_attribute = internal global i32 0, align 4
@hf_pcep_subobj_srlg_x = internal global i32 0, align 4
@ei_pcep_subobject_bad_length = internal global %struct.expert_field zeroinitializer, align 4
@.str.1179 = private unnamed_addr constant [35 x i8] c"Bad SRLG subobject: length %u != 8\00", align 1

; Function Attrs: null_pointer_is_valid sspstrong uwtable
define internal void @dissect_subobj_srlg(ptr noundef %0, ptr noundef %1, ptr noundef %2, i32 noundef %3, i32 noundef %4, i32 noundef %5) #0 {
  %7 = alloca ptr, align 8
  %8 = alloca ptr, align 8
  %9 = alloca ptr, align 8
  %10 = alloca i32, align 4
  %11 = alloca i32, align 4
  %12 = alloca i32, align 4
  %13 = alloca ptr, align 8
  %14 = alloca ptr, align 8
  %15 = alloca i32, align 4
  store ptr %0, ptr %7, align 8
  store ptr %1, ptr %8, align 8
  store ptr %2, ptr %9, align 8
  store i32 %3, ptr %10, align 4
  store i32 %4, ptr %11, align 4
  store i32 %5, ptr %12, align 4
  call void @llvm.lifetime.start.p0(i64 8, ptr %13) #4
  call void @llvm.lifetime.start.p0(i64 8, ptr %14) #4
  %16 = load ptr, ptr %7, align 8
  %17 = load i32, ptr @hf_PCEPF_SUBOBJ_SRLG, align 4
  %18 = load ptr, ptr %9, align 8
  %19 = load i32, ptr %10, align 4
  %20 = load i32, ptr %12, align 4
  %21 = call ptr @proto_tree_add_item(ptr noundef %16, i32 noundef %17, ptr noundef %18, i32 noundef %19, i32 noundef %20, i32 noundef 0)
  store ptr %21, ptr %14, align 8
  %22 = load ptr, ptr %14, align 8
  %23 = load i32, ptr %11, align 4
  %24 = call ptr @proto_item_add_subtree(ptr noundef %22, i32 noundef %23)
  store ptr %24, ptr %13, align 8
  %25 = load i32, ptr %12, align 4
  %26 = icmp ne i32 %25, 8
  br i1 %26, label %27, label %32

27:                                               ; preds = %6
  %28 = load ptr, ptr %8, align 8
  %29 = load ptr, ptr %14, align 8
  %30 = load i32, ptr %12, align 4
  %31 = call ptr (ptr, ptr, ptr, ptr, ...) @expert_add_info_format(ptr noundef %28, ptr noundef %29, ptr noundef @ei_pcep_subobject_bad_length, ptr noundef @.str.1179, i32 noundef %30)
  store i32 1, ptr %15, align 4
  br label %67

32:                                               ; preds = %6
  %33 = load ptr, ptr %13, align 8
  %34 = load i32, ptr @hf_pcep_subobj_srlg_x, align 4
  %35 = load ptr, ptr %9, align 8
  %36 = load i32, ptr %10, align 4
  %37 = call ptr @proto_tree_add_item(ptr noundef %33, i32 noundef %34, ptr noundef %35, i32 noundef %36, i32 noundef 1, i32 noundef 0)
  %38 = load ptr, ptr %13, align 8
  %39 = load i32, ptr @hf_PCEPF_SUBOBJ_XRO, align 4
  %40 = load ptr, ptr %9, align 8
  %41 = load i32, ptr %10, align 4
  %42 = call ptr @proto_tree_add_item(ptr noundef %38, i32 noundef %39, ptr noundef %40, i32 noundef %41, i32 noundef 1, i32 noundef 0)
  %43 = load ptr, ptr %13, align 8
  %44 = load i32, ptr @hf_pcep_subobj_srlg_length, align 4
  %45 = load ptr, ptr %9, align 8
  %46 = load i32, ptr %10, align 4
  %47 = add i32 %46, 1
  %48 = call ptr @proto_tree_add_item(ptr noundef %43, i32 noundef %44, ptr noundef %45, i32 noundef %47, i32 noundef 1, i32 noundef 0)
  %49 = load ptr, ptr %13, align 8
  %50 = load i32, ptr @hf_pcep_subobj_srlg_id, align 4
  %51 = load ptr, ptr %9, align 8
  %52 = load i32, ptr %10, align 4
  %53 = add i32 %52, 2
  %54 = call ptr @proto_tree_add_item(ptr noundef %49, i32 noundef %50, ptr noundef %51, i32 noundef %53, i32 noundef 4, i32 noundef 0)
  %55 = load ptr, ptr %13, align 8
  %56 = load i32, ptr @hf_pcep_subobj_srlg_reserved, align 4
  %57 = load ptr, ptr %9, align 8
  %58 = load i32, ptr %10, align 4
  %59 = add i32 %58, 6
  %60 = call ptr @proto_tree_add_item(ptr noundef %55, i32 noundef %56, ptr noundef %57, i32 noundef %59, i32 noundef 1, i32 noundef 0)
  %61 = load ptr, ptr %13, align 8
  %62 = load i32, ptr @hf_pcep_subobj_srlg_attribute, align 4
  %63 = load ptr, ptr %9, align 8
  %64 = load i32, ptr %10, align 4
  %65 = add i32 %64, 7
  %66 = call ptr @proto_tree_add_item(ptr noundef %61, i32 noundef %62, ptr noundef %63, i32 noundef %65, i32 noundef 1, i32 noundef 0)
  store i32 0, ptr %15, align 4
  br label %67

67:                                               ; preds = %32, %27
  call void @llvm.lifetime.end.p0(i64 8, ptr %14) #4
  call void @llvm.lifetime.end.p0(i64 8, ptr %13) #4
  %68 = load i32, ptr %15, align 4
  switch i32 %68, label %70 [
    i32 0, label %69
    i32 1, label %69
  ]

69:                                               ; preds = %67, %67
  ret void

70:                                               ; preds = %67
  unreachable
}