; Function Attrs: null_pointer_is_valid sspstrong uwtable
define internal fastcc void @dissect_subobj_srlg(ptr noundef %0, ptr noundef %1, ptr noundef %2, i32 noundef %3, i32 noundef %4, i32 noundef range(i32 2, 256) %5) unnamed_addr #0 {
  %7 = load i32, ptr @hf_PCEPF_SUBOBJ_SRLG, align 4
  %8 = tail call ptr @proto_tree_add_item(ptr noundef %0, i32 noundef %7, ptr noundef %2, i32 noundef %3, i32 noundef %5, i32 noundef 0)
  %9 = tail call ptr @proto_item_add_subtree(ptr noundef %8, i32 noundef %4)
  %.not = icmp eq i32 %5, 8
  br i1 %.not, label %12, label %10

10:                                               ; preds = %6
  %11 = tail call ptr (ptr, ptr, ptr, ptr, ...) @expert_add_info_format(ptr noundef %1, ptr noundef %8, ptr noundef nonnull @ei_pcep_subobject_bad_length, ptr noundef nonnull @.str.1179, i32 noundef %5)
  br label %29

12:                                               ; preds = %6
  %13 = load i32, ptr @hf_pcep_subobj_srlg_x, align 4
  %14 = tail call ptr @proto_tree_add_item(ptr noundef %9, i32 noundef %13, ptr noundef %2, i32 noundef %3, i32 noundef 1, i32 noundef 0)
  %15 = load i32, ptr @hf_PCEPF_SUBOBJ_XRO, align 4
  %16 = tail call ptr @proto_tree_add_item(ptr noundef %9, i32 noundef %15, ptr noundef %2, i32 noundef %3, i32 noundef 1, i32 noundef 0)
  %17 = load i32, ptr @hf_pcep_subobj_srlg_length, align 4
  %18 = add i32 %3, 1
  %19 = tail call ptr @proto_tree_add_item(ptr noundef %9, i32 noundef %17, ptr noundef %2, i32 noundef %18, i32 noundef 1, i32 noundef 0)
  %20 = load i32, ptr @hf_pcep_subobj_srlg_id, align 4
  %21 = add i32 %3, 2
  %22 = tail call ptr @proto_tree_add_item(ptr noundef %9, i32 noundef %20, ptr noundef %2, i32 noundef %21, i32 noundef 4, i32 noundef 0)
  %23 = load i32, ptr @hf_pcep_subobj_srlg_reserved, align 4
  %24 = add i32 %3, 6
  %25 = tail call ptr @proto_tree_add_item(ptr noundef %9, i32 noundef %23, ptr noundef %2, i32 noundef %24, i32 noundef 1, i32 noundef 0)
  %26 = load i32, ptr @hf_pcep_subobj_srlg_attribute, align 4
  %27 = add i32 %3, 7
  %28 = tail call ptr @proto_tree_add_item(ptr noundef %9, i32 noundef %26, ptr noundef %2, i32 noundef %27, i32 noundef 1, i32 noundef 0)
  br label %29

29:                                               ; preds = %12, %10
  ret void
}